target datalayout = "e-m:e-p270:32:32-p271:32:32-p272:64:64-i64:64-i128:128-f80:128-n8:16:32:64-S128"
target triple = "x86_64-pc-linux-gnu"

%struct._grid = type { ptr, ptr, ptr, i32, ptr, ptr }
%struct._block = type { ptr, ptr, ptr, ptr }
%struct.cell = type { %struct.gridpt, ptr, %struct.dtlink_s_ }
%struct.gridpt = type { i32, i32 }
%struct.dtlink_s_ = type { ptr, %union.anon.0 }
%union.anon.0 = type { ptr }

@_grid = internal global %struct._grid zeroinitializer, align 8

; Function Attrs: nounwind uwtable
define internal ptr @getCell(ptr noundef %0) #0 {
  %2 = alloca ptr, align 8
  %3 = alloca ptr, align 8
  %4 = alloca ptr, align 8
  store ptr %0, ptr %2, align 8, !tbaa !7
  call void @llvm.lifetime.start.p0(i64 8, ptr %3) #9
  call void @llvm.lifetime.start.p0(i64 8, ptr %4) #9
  %5 = load ptr, ptr %2, align 8, !tbaa !7
  %6 = getelementptr inbounds nuw %struct._grid, ptr %5, i32 0, i32 2
  %7 = load ptr, ptr %6, align 8, !tbaa !35
  store ptr %7, ptr %4, align 8, !tbaa !17
  %8 = load ptr, ptr %4, align 8, !tbaa !17
  %9 = getelementptr inbounds nuw %struct._block, ptr %8, i32 0, i32 1
  %10 = load ptr, ptr %9, align 8, !tbaa !22
  %11 = load ptr, ptr %4, align 8, !tbaa !17
  %12 = getelementptr inbounds nuw %struct._block, ptr %11, i32 0, i32 2
  %13 = load ptr, ptr %12, align 8, !tbaa !21
  %14 = icmp eq ptr %10, %13
  br i1 %14, label %15, label %47

15:                                               ; preds = %1
  %16 = load ptr, ptr %4, align 8, !tbaa !17
  %17 = getelementptr inbounds nuw %struct._block, ptr %16, i32 0, i32 3
  %18 = load ptr, ptr %17, align 8, !tbaa !18
  %19 = icmp eq ptr %18, null
  br i1 %19, label %20, label %36

20:                                               ; preds = %15
  %21 = load ptr, ptr %4, align 8, !tbaa !17
  %22 = getelementptr inbounds nuw %struct._block, ptr %21, i32 0, i32 2
  %23 = load ptr, ptr %22, align 8, !tbaa !21
  %24 = load ptr, ptr %4, align 8, !tbaa !17
  %25 = getelementptr inbounds nuw %struct._block, ptr %24, i32 0, i32 0
  %26 = load ptr, ptr %25, align 8, !tbaa !20
  %27 = ptrtoint ptr %23 to i64
  %28 = ptrtoint ptr %26 to i64
  %29 = sub i64 %27, %28
  %30 = sdiv exact i64 %29, 32
  %31 = mul nsw i64 2, %30
  %32 = trunc i64 %31 to i32
  %33 = call ptr @newBlock(i32 noundef %32)
  %34 = load ptr, ptr %4, align 8, !tbaa !17
  %35 = getelementptr inbounds nuw %struct._block, ptr %34, i32 0, i32 3
  store ptr %33, ptr %35, align 8, !tbaa !18
  br label %36

36:                                               ; preds = %20, %15
  %37 = load ptr, ptr %4, align 8, !tbaa !17
  %38 = getelementptr inbounds nuw %struct._block, ptr %37, i32 0, i32 3
  %39 = load ptr, ptr %38, align 8, !tbaa !18
  %40 = load ptr, ptr %2, align 8, !tbaa !7
  %41 = getelementptr inbounds nuw %struct._grid, ptr %40, i32 0, i32 2
  store ptr %39, ptr %41, align 8, !tbaa !35
  store ptr %39, ptr %4, align 8, !tbaa !17
  %42 = load ptr, ptr %4, align 8, !tbaa !17
  %43 = getelementptr inbounds nuw %struct._block, ptr %42, i32 0, i32 0
  %44 = load ptr, ptr %43, align 8, !tbaa !20
  %45 = load ptr, ptr %4, align 8, !tbaa !17
  %46 = getelementptr inbounds nuw %struct._block, ptr %45, i32 0, i32 1
  store ptr %44, ptr %46, align 8, !tbaa !22
  br label %47

47:                                               ; preds = %36, %1
  %48 = load ptr, ptr %4, align 8, !tbaa !17
  %49 = getelementptr inbounds nuw %struct._block, ptr %48, i32 0, i32 1
  %50 = load ptr, ptr %49, align 8, !tbaa !22
  %51 = getelementptr inbounds nuw %struct.cell, ptr %50, i32 1
  store ptr %51, ptr %49, align 8, !tbaa !22
  store ptr %50, ptr %3, align 8, !tbaa !10
  %52 = load ptr, ptr %3, align 8, !tbaa !10
  call void @llvm.lifetime.end.p0(i64 8, ptr %4) #9
  call void @llvm.lifetime.end.p0(i64 8, ptr %3) #9
  ret ptr %52
}

; Function Attrs: nounwind uwtable
define internal ptr @newCell(ptr noundef %0, ptr noundef %1) #0 {
  %3 = alloca ptr, align 8
  %4 = alloca ptr, align 8
  %5 = alloca ptr, align 8
  %6 = alloca ptr, align 8
  store ptr %0, ptr %3, align 8, !tbaa !10
  store ptr %1, ptr %4, align 8, !tbaa !51
  call void @llvm.lifetime.start.p0(i64 8, ptr %5) #9
  %7 = load ptr, ptr %3, align 8, !tbaa !10
  store ptr %7, ptr %5, align 8, !tbaa !10
  call void @llvm.lifetime.start.p0(i64 8, ptr %6) #9
  %8 = call ptr @getCell(ptr noundef @_grid)
  store ptr %8, ptr %6, align 8, !tbaa !10
  %9 = load ptr, ptr %5, align 8, !tbaa !10
  %10 = getelementptr inbounds nuw %struct.cell, ptr %9, i32 0, i32 0
  %11 = getelementptr inbounds nuw %struct.gridpt, ptr %10, i32 0, i32 0
  %12 = load i32, ptr %11, align 8, !tbaa !38
  %13 = load ptr, ptr %6, align 8, !tbaa !10
  %14 = getelementptr inbounds nuw %struct.cell, ptr %13, i32 0, i32 0
  %15 = getelementptr inbounds nuw %struct.gridpt, ptr %14, i32 0, i32 0
  store i32 %12, ptr %15, align 8, !tbaa !38
  %16 = load ptr, ptr %5, align 8, !tbaa !10
  %17 = getelementptr inbounds nuw %struct.cell, ptr %16, i32 0, i32 0
  %18 = getelementptr inbounds nuw %struct.gridpt, ptr %17, i32 0, i32 1
  %19 = load i32, ptr %18, align 4, !tbaa !42
  %20 = load ptr, ptr %6, align 8, !tbaa !10
  %21 = getelementptr inbounds nuw %struct.cell, ptr %20, i32 0, i32 0
  %22 = getelementptr inbounds nuw %struct.gridpt, ptr %21, i32 0, i32 1
  store i32 %19, ptr %22, align 4, !tbaa !42
  %23 = load ptr, ptr %6, align 8, !tbaa !10
  %24 = getelementptr inbounds nuw %struct.cell, ptr %23, i32 0, i32 1
  store ptr null, ptr %24, align 8, !tbaa !43
  %25 = load ptr, ptr %6, align 8, !tbaa !10
  call void @llvm.lifetime.end.p0(i64 8, ptr %6) #9
  call void @llvm.lifetime.end.p0(i64 8, ptr %5) #9
  ret ptr %25
}