; Function Attrs: nofree nounwind uwtable
define internal noundef ptr @newCell(ptr noundef readonly captures(none) %0, ptr readnone captures(none) %1) #4 {
  %3 = load ptr, ptr getelementptr inbounds nuw (i8, ptr @_grid, i64 16), align 8, !tbaa !28
  %4 = getelementptr inbounds nuw i8, ptr %3, i64 8
  %5 = load ptr, ptr %4, align 8, !tbaa !19
  %6 = getelementptr inbounds nuw i8, ptr %3, i64 16
  %7 = load ptr, ptr %6, align 8, !tbaa !18
  %8 = icmp eq ptr %5, %7
  br i1 %8, label %9, label %getCell.exit

9:                                                ; preds = %2
  %10 = getelementptr inbounds nuw i8, ptr %3, i64 24
  %11 = load ptr, ptr %10, align 8, !tbaa !29
  %12 = icmp eq ptr %11, null
  br i1 %12, label %13, label %21

13:                                               ; preds = %9
  %14 = load ptr, ptr %3, align 8, !tbaa !16
  %15 = ptrtoint ptr %5 to i64
  %16 = ptrtoint ptr %14 to i64
  %17 = sub i64 %15, %16
  %18 = lshr exact i64 %17, 4
  %19 = trunc i64 %18 to i32
  %20 = tail call fastcc ptr @newBlock(i32 noundef %19)
  store ptr %20, ptr %10, align 8, !tbaa !29
  br label %21

21:                                               ; preds = %13, %9
  %22 = phi ptr [ %20, %13 ], [ %11, %9 ]
  store ptr %22, ptr getelementptr inbounds nuw (i8, ptr @_grid, i64 16), align 8, !tbaa !28
  %23 = load ptr, ptr %22, align 8, !tbaa !16
  %24 = getelementptr inbounds nuw i8, ptr %22, i64 8
  store ptr %23, ptr %24, align 8, !tbaa !19
  br label %getCell.exit

getCell.exit:                                     ; preds = %2, %21
  %25 = phi ptr [ %23, %21 ], [ %5, %2 ]
  %.0.i = phi ptr [ %22, %21 ], [ %3, %2 ]
  %26 = getelementptr inbounds nuw i8, ptr %.0.i, i64 8
  %27 = getelementptr inbounds nuw i8, ptr %25, i64 32
  store ptr %27, ptr %26, align 8, !tbaa !19
  %28 = load i32, ptr %0, align 8, !tbaa !30
  store i32 %28, ptr %25, align 8, !tbaa !30
  %29 = getelementptr inbounds nuw i8, ptr %0, i64 4
  %30 = load i32, ptr %29, align 4, !tbaa !34
  %31 = getelementptr inbounds nuw i8, ptr %25, i64 4
  store i32 %30, ptr %31, align 4, !tbaa !34
  %32 = getelementptr inbounds nuw i8, ptr %25, i64 8
  store ptr null, ptr %32, align 8, !tbaa !35
  ret ptr %25
}